; Function Attrs: mustprogress nofree norecurse nosync nounwind willreturn memory(read, inaccessiblemem: none) uwtable
define noundef zeroext i1 @_ZN8LightGBM7Linkers11CheckLinkerEi(ptr noundef nonnull readonly align 8 captures(none) dereferenceable(304) %0, i32 noundef %1) local_unnamed_addr #22 align 2 {
  %3 = getelementptr inbounds nuw i8, ptr %0, i64 272
  %4 = sext i32 %1 to i64
  %5 = load ptr, ptr %3, align 8, !tbaa !101
  %6 = getelementptr inbounds nuw %"class.std::unique_ptr", ptr %5, i64 %4
  %7 = load ptr, ptr %6, align 8, !tbaa !91
  %.not.i = icmp eq ptr %7, null
  br i1 %.not.i, label %11, label %8

8:                                                ; preds = %2
  %9 = load i32, ptr %7, align 4, !tbaa !97
  %10 = icmp ne i32 %9, -1
  br label %11

11:                                               ; preds = %8, %2
  %.0 = phi i1 [ false, %2 ], [ %10, %8 ]
  ret i1 %.0
}